target datalayout = "e-m:e-p270:32:32-p271:32:32-p272:64:64-i64:64-i128:128-f80:128-n8:16:32:64-S128"
target triple = "x86_64-unknown-linux-gnu"

%struct.bin_info_s = type { i64, i64, i32, i32, %struct.bitmap_info_s }
%struct.bitmap_info_s = type { i64, i64 }

@bin_infos = external global [39 x %struct.bin_info_s], align 16

; Function Attrs: nounwind uwtable
define internal i32 @arenas_bin_i_nshards_ctl(ptr noundef %tsd, ptr noundef %mib, i64 noundef %miblen, ptr noundef %oldp, ptr noundef %oldlenp, ptr noundef %newp, i64 noundef %newlen) #0 {
entry:
  %tsd.addr = alloca ptr, align 8
  %mib.addr = alloca ptr, align 8
  %miblen.addr = alloca i64, align 8
  %oldp.addr = alloca ptr, align 8
  %oldlenp.addr = alloca ptr, align 8
  %newp.addr = alloca ptr, align 8
  %newlen.addr = alloca i64, align 8
  %ret = alloca i32, align 4
  %oldval = alloca i32, align 4
  %copylen = alloca i64, align 8
  store ptr %tsd, ptr %tsd.addr, align 8
  store ptr %mib, ptr %mib.addr, align 8
  store i64 %miblen, ptr %miblen.addr, align 8
  store ptr %oldp, ptr %oldp.addr, align 8
  store ptr %oldlenp, ptr %oldlenp.addr, align 8
  store ptr %newp, ptr %newp.addr, align 8
  store i64 %newlen, ptr %newlen.addr, align 8
  br label %do.body

do.body:                                          ; preds = %entry
  %0 = load ptr, ptr %newp.addr, align 8
  %cmp = icmp ne ptr %0, null
  br i1 %cmp, label %if.then, label %lor.lhs.false

lor.lhs.false:                                    ; preds = %do.body
  %1 = load i64, ptr %newlen.addr, align 8
  %cmp1 = icmp ne i64 %1, 0
  br i1 %cmp1, label %if.then, label %if.end

if.then:                                          ; preds = %lor.lhs.false, %do.body
  store i32 1, ptr %ret, align 4
  br label %label_return

if.end:                                           ; preds = %lor.lhs.false
  br label %do.end

do.end:                                           ; preds = %if.end
  %2 = load ptr, ptr %mib.addr, align 8
  %arrayidx = getelementptr inbounds i64, ptr %2, i64 2
  %3 = load i64, ptr %arrayidx, align 8
  %arrayidx2 = getelementptr inbounds [39 x %struct.bin_info_s], ptr @bin_infos, i64 0, i64 %3
  %n_shards = getelementptr inbounds %struct.bin_info_s, ptr %arrayidx2, i32 0, i32 3
  %4 = load i32, ptr %n_shards, align 4
  store i32 %4, ptr %oldval, align 4
  br label %do.body3

do.body3:                                         ; preds = %do.end
  %5 = load ptr, ptr %oldp.addr, align 8
  %cmp4 = icmp ne ptr %5, null
  br i1 %cmp4, label %land.lhs.true, label %if.end11

land.lhs.true:                                    ; preds = %do.body3
  %6 = load ptr, ptr %oldlenp.addr, align 8
  %cmp5 = icmp ne ptr %6, null
  br i1 %cmp5, label %if.then6, label %if.end11

if.then6:                                         ; preds = %land.lhs.true
  %7 = load ptr, ptr %oldlenp.addr, align 8
  %8 = load i64, ptr %7, align 8
  %cmp7 = icmp ne i64 %8, 4
  br i1 %cmp7, label %if.then8, label %if.end10

if.then8:                                         ; preds = %if.then6
  %9 = load ptr, ptr %oldlenp.addr, align 8
  %10 = load i64, ptr %9, align 8
  %cmp9 = icmp ule i64 4, %10
  br i1 %cmp9, label %cond.true, label %cond.false

cond.true:                                        ; preds = %if.then8
  br label %cond.end

cond.false:                                       ; preds = %if.then8
  %11 = load ptr, ptr %oldlenp.addr, align 8
  %12 = load i64, ptr %11, align 8
  br label %cond.end

cond.end:                                         ; preds = %cond.false, %cond.true
  %cond = phi i64 [ 4, %cond.true ], [ %12, %cond.false ]
  store i64 %cond, ptr %copylen, align 8
  %13 = load ptr, ptr %oldp.addr, align 8
  %14 = load i64, ptr %copylen, align 8
  call void @llvm.memcpy.p0.p0.i64(ptr align 1 %13, ptr align 1 %oldval, i64 %14, i1 false)
  %15 = load i64, ptr %copylen, align 8
  %16 = load ptr, ptr %oldlenp.addr, align 8
  store i64 %15, ptr %16, align 8
  store i32 22, ptr %ret, align 4
  br label %label_return

if.end10:                                         ; preds = %if.then6
  %17 = load i32, ptr %oldval, align 4
  %18 = load ptr, ptr %oldp.addr, align 8
  store i32 %17, ptr %18, align 4
  br label %if.end11

if.end11:                                         ; preds = %if.end10, %land.lhs.true, %do.body3
  br label %do.end12

do.end12:                                         ; preds = %if.end11
  store i32 0, ptr %ret, align 4
  br label %label_return

label_return:                                     ; preds = %do.end12, %cond.end, %if.then
  %19 = load i32, ptr %ret, align 4
  ret i32 %19
}