; Function Attrs: mustprogress nofree norecurse nosync nounwind willreturn memory(read, argmem: readwrite, inaccessiblemem: none) uwtable
define internal noundef i32 @arenas_bin_i_nshards_ctl(ptr nocapture readnone %tsd, ptr nocapture noundef readonly %mib, i64 %miblen, ptr noundef writeonly %oldp, ptr noundef %oldlenp, ptr noundef readnone %newp, i64 noundef %newlen) #10 {
entry:
  %oldval = alloca i32, align 4
  %cmp = icmp ne ptr %newp, null
  %cmp1 = icmp ne i64 %newlen, 0
  %or.cond = or i1 %cmp, %cmp1
  br i1 %or.cond, label %label_return, label %do.end

do.end:                                           ; preds = %entry
  %arrayidx = getelementptr inbounds i8, ptr %mib, i64 16
  %0 = load i64, ptr %arrayidx, align 8
  %n_shards = getelementptr inbounds [39 x %struct.bin_info_s], ptr @bin_infos, i64 0, i64 %0, i32 3
  %1 = load i32, ptr %n_shards, align 4
  store i32 %1, ptr %oldval, align 4
  %cmp4 = icmp ne ptr %oldp, null
  %cmp5 = icmp ne ptr %oldlenp, null
  %or.cond1 = and i1 %cmp4, %cmp5
  br i1 %or.cond1, label %if.then6, label %label_return

if.then6:                                         ; preds = %do.end
  %2 = load i64, ptr %oldlenp, align 8
  %cmp7.not = icmp eq i64 %2, 4
  br i1 %cmp7.not, label %if.end10, label %if.then8

if.then8:                                         ; preds = %if.then6
  %spec.select = tail call i64 @llvm.umin.i64(i64 %2, i64 4)
  call void @llvm.memcpy.p0.p0.i64(ptr nonnull align 1 %oldp, ptr nonnull align 4 %oldval, i64 %spec.select, i1 false)
  store i64 %spec.select, ptr %oldlenp, align 8
  br label %label_return

if.end10:                                         ; preds = %if.then6
  store i32 %1, ptr %oldp, align 4
  br label %label_return

label_return:                                     ; preds = %if.end10, %do.end, %entry, %if.then8
  %ret.0 = phi i32 [ 22, %if.then8 ], [ 1, %entry ], [ 0, %do.end ], [ 0, %if.end10 ]
  ret i32 %ret.0
}